target datalayout = "e-m:e-p270:32:32-p271:32:32-p272:64:64-i64:64-i128:128-f80:128-n8:16:32:64-S128"
target triple = "x86_64-pc-linux-gnu"

%"class.clang::Decl.base" = type <{ ptr, %"class.llvm::PointerIntPair.337", %"class.llvm::PointerUnion", %"class.clang::SourceLocation", i32, i8 }>
%"class.llvm::PointerIntPair.337" = type { %"struct.llvm::detail::PunnedPointer.338" }
%"struct.llvm::detail::PunnedPointer.338" = type { [8 x i8] }
%"class.llvm::PointerUnion" = type { %"class.llvm::pointer_union_detail::PointerUnionMembers" }
%"class.llvm::pointer_union_detail::PointerUnionMembers" = type { %"class.llvm::pointer_union_detail::PointerUnionMembers.339" }
%"class.llvm::pointer_union_detail::PointerUnionMembers.339" = type { %"class.llvm::pointer_union_detail::PointerUnionMembers.340" }
%"class.llvm::pointer_union_detail::PointerUnionMembers.340" = type { %"class.llvm::PointerIntPair.341" }
%"class.llvm::PointerIntPair.341" = type { %"struct.llvm::detail::PunnedPointer.342" }
%"struct.llvm::detail::PunnedPointer.342" = type { [8 x i8] }
%"class.clang::SourceLocation" = type { i32 }
%"class.clang::QualType" = type { %"class.llvm::PointerIntPair" }
%"class.llvm::PointerIntPair" = type { %"struct.llvm::detail::PunnedPointer" }
%"struct.llvm::detail::PunnedPointer" = type { [8 x i8] }
%"class.clang::NamedDecl" = type { %"class.clang::Decl.base", %"class.clang::DeclarationName" }
%"class.clang::DeclarationName" = type { i64 }
%"class.clang::DeclContext" = type { ptr, %union.anon.347, ptr, ptr }
%union.anon.347 = type { %"class.clang::DeclContext::RecordDeclBitfields" }
%"class.clang::DeclContext::RecordDeclBitfields" = type { i64 }
%"class.llvm::PointerUnion.348" = type { %"class.llvm::pointer_union_detail::PointerUnionMembers.349" }
%"class.llvm::pointer_union_detail::PointerUnionMembers.349" = type { %"class.llvm::pointer_union_detail::PointerUnionMembers.350" }
%"class.llvm::pointer_union_detail::PointerUnionMembers.350" = type { %"class.llvm::pointer_union_detail::PointerUnionMembers.351" }
%"class.llvm::pointer_union_detail::PointerUnionMembers.351" = type { %"class.llvm::PointerIntPair.352" }
%"class.llvm::PointerIntPair.352" = type { %"struct.llvm::detail::PunnedPointer.342" }
%"class.clang::ValueDecl" = type { %"class.clang::NamedDecl", %"class.clang::QualType" }
%"class.clang::DeclContext::FunctionDeclBitfields" = type <{ i16, i32, [2 x i8] }>
%"class.clang::ExplicitSpecifier" = type { %"class.llvm::PointerIntPair.460" }
%"class.llvm::PointerIntPair.460" = type { %"struct.llvm::detail::PunnedPointer.461" }
%"struct.llvm::detail::PunnedPointer.461" = type { [8 x i8] }
%"class.clang::DeclaratorDecl.base" = type <{ %"class.clang::ValueDecl", %"class.llvm::PointerUnion.401", %"class.clang::SourceLocation" }>
%"class.llvm::PointerUnion.401" = type { %"class.llvm::pointer_union_detail::PointerUnionMembers.402" }
%"class.llvm::pointer_union_detail::PointerUnionMembers.402" = type { %"class.llvm::pointer_union_detail::PointerUnionMembers.403" }
%"class.llvm::pointer_union_detail::PointerUnionMembers.403" = type { %"class.llvm::pointer_union_detail::PointerUnionMembers.404" }
%"class.llvm::pointer_union_detail::PointerUnionMembers.404" = type { %"class.llvm::PointerIntPair.405" }
%"class.llvm::PointerIntPair.405" = type { %"struct.llvm::detail::PunnedPointer.342" }
%"struct.clang::LazyOffsetPtr.408" = type { i64 }
%"class.clang::FunctionDecl" = type { %"class.clang::DeclaratorDecl.base", %"class.clang::DeclContext", %"class.clang::Redeclarable.406", ptr, %union.anon.407, i32, %"class.clang::SourceLocation", %"class.clang::SourceLocation", [4 x i8], %"class.llvm::PointerUnion.409", %"class.clang::DeclarationNameLoc" }
%"class.clang::Redeclarable.406" = type { %"class.clang::Redeclarable<clang::FunctionDecl>::DeclLink", ptr }
%"class.clang::Redeclarable<clang::FunctionDecl>::DeclLink" = type { %"class.llvm::PointerUnion.348" }
%union.anon.407 = type { %"struct.clang::LazyOffsetPtr.408" }
%"class.llvm::PointerUnion.409" = type { %"class.llvm::pointer_union_detail::PointerUnionMembers.410" }
%"class.llvm::pointer_union_detail::PointerUnionMembers.410" = type { %"class.llvm::pointer_union_detail::PointerUnionMembers.411" }
%"class.llvm::pointer_union_detail::PointerUnionMembers.411" = type { %"class.llvm::pointer_union_detail::PointerUnionMembers.412" }
%"class.llvm::pointer_union_detail::PointerUnionMembers.412" = type { %"class.llvm::pointer_union_detail::PointerUnionMembers.413" }
%"class.llvm::pointer_union_detail::PointerUnionMembers.413" = type { %"class.llvm::pointer_union_detail::PointerUnionMembers.414" }
%"class.llvm::pointer_union_detail::PointerUnionMembers.414" = type { %"class.llvm::PointerIntPair.415" }
%"class.llvm::PointerIntPair.415" = type { %"struct.llvm::detail::PunnedPointer.342" }
%"class.clang::DeclarationNameLoc" = type { %union.anon.416 }
%union.anon.416 = type { %"struct.clang::DeclarationNameLoc::NT" }
%"struct.clang::DeclarationNameLoc::NT" = type { ptr }
%"class.clang::CXXDeductionGuideDecl" = type { %"class.clang::FunctionDecl", ptr, %"class.clang::ExplicitSpecifier" }

; Function Attrs: mustprogress nounwind uwtable
define linkonce_odr hidden void @_ZN5clang21CXXDeductionGuideDecl25setDeductionCandidateKindENS_18DeductionCandidateE(ptr noundef nonnull align 8 dereferenceable(184) %0, i8 noundef zeroext %1) #0 comdat align 2 {
  %3 = alloca ptr, align 8
  %4 = alloca i8, align 1
  store ptr %0, ptr %3, align 8
  store i8 %1, ptr %4, align 1
  %5 = load ptr, ptr %3, align 8
  %6 = load i8, ptr %4, align 1
  %7 = zext i8 %6 to i64
  %8 = getelementptr inbounds i8, ptr %5, i64 72
  %9 = getelementptr inbounds nuw %"class.clang::DeclContext", ptr %8, i32 0, i32 1
  %10 = getelementptr inbounds nuw %"class.clang::DeclContext::FunctionDeclBitfields", ptr %9, i32 0, i32 1
  %11 = trunc i64 %7 to i32
  %12 = load i32, ptr %10, align 2
  %13 = and i32 %11, 3
  %14 = shl i32 %13, 23
  %15 = and i32 %12, -25165825
  %16 = or i32 %15, %14
  store i32 %16, ptr %10, align 2
  ret void
}

; Function Attrs: mustprogress nounwind uwtable
define linkonce_odr hidden void @_ZN5clang12FunctionDecl11setRangeEndENS_14SourceLocationE(ptr noundef nonnull align 8 dereferenceable(168) %0, i32 %1) #0 comdat align 2 {
  %3 = alloca %"class.clang::SourceLocation", align 4
  %4 = alloca ptr, align 8
  %5 = getelementptr inbounds nuw %"class.clang::SourceLocation", ptr %3, i32 0, i32 0
  store i32 %1, ptr %5, align 4
  store ptr %0, ptr %4, align 8
  %6 = load ptr, ptr %4, align 8
  %7 = getelementptr inbounds nuw %"class.clang::FunctionDecl", ptr %6, i32 0, i32 6
  call void @llvm.memcpy.p0.p0.i64(ptr align 4 %7, ptr align 4 %3, i64 4, i1 false)
  ret void
}

; Function Attrs: mustprogress nounwind uwtable
define linkonce_odr hidden noundef zeroext i1 @_ZNK5clang14SourceLocation7isValidEv(ptr noundef nonnull align 4 dereferenceable(4) %0) #0 comdat align 2 {
  %2 = alloca ptr, align 8
  store ptr %0, ptr %2, align 8
  %3 = load ptr, ptr %2, align 8
  %4 = getelementptr inbounds nuw %"class.clang::SourceLocation", ptr %3, i32 0, i32 0
  %5 = load i32, ptr %4, align 4
  %6 = icmp ne i32 %5, 0
  ret i1 %6
}

; Function Attrs: mustprogress nounwind uwtable
define linkonce_odr hidden void @_ZN5clang21CXXDeductionGuideDeclC2ERNS_10ASTContextEPNS_11DeclContextENS_14SourceLocationENS_17ExplicitSpecifierERKNS_19DeclarationNameInfoENS_8QualTypeEPNS_14TypeSourceInfoES5_PNS_18CXXConstructorDeclENS_18DeductionCandidateE(ptr noundef nonnull align 8 dereferenceable(184) %0, ptr noundef nonnull align 8 dereferenceable(23096) %1, ptr noundef %2, i32 %3, i64 %4, ptr noundef nonnull align 8 dereferenceable(24) %5, i64 %6, ptr noundef %7, i32 %8, ptr noundef %9, i8 noundef zeroext %10) unnamed_addr #0 comdat align 2 {
  %12 = alloca %"class.clang::SourceLocation", align 4
  %13 = alloca %"class.clang::ExplicitSpecifier", align 8
  %14 = alloca %"class.clang::QualType", align 8
  %15 = alloca %"class.clang::SourceLocation", align 4
  %16 = alloca ptr, align 8
  %17 = alloca ptr, align 8
  %18 = alloca ptr, align 8
  %19 = alloca ptr, align 8
  %20 = alloca ptr, align 8
  %21 = alloca ptr, align 8
  %22 = alloca i8, align 1
  %23 = alloca %"class.clang::SourceLocation", align 4
  %24 = alloca %"class.clang::QualType", align 8
  %25 = alloca %"class.clang::SourceLocation", align 4
  %26 = getelementptr inbounds nuw %"class.clang::SourceLocation", ptr %12, i32 0, i32 0
  store i32 %3, ptr %26, align 4
  %27 = getelementptr inbounds nuw %"class.clang::ExplicitSpecifier", ptr %13, i32 0, i32 0
  %28 = getelementptr inbounds nuw %"class.llvm::PointerIntPair.460", ptr %27, i32 0, i32 0
  %29 = getelementptr inbounds nuw %"struct.llvm::detail::PunnedPointer.461", ptr %28, i32 0, i32 0
  store i64 %4, ptr %29, align 8
  %30 = getelementptr inbounds nuw %"class.clang::QualType", ptr %14, i32 0, i32 0
  %31 = getelementptr inbounds nuw %"class.llvm::PointerIntPair", ptr %30, i32 0, i32 0
  %32 = getelementptr inbounds nuw %"struct.llvm::detail::PunnedPointer", ptr %31, i32 0, i32 0
  store i64 %6, ptr %32, align 8
  %33 = getelementptr inbounds nuw %"class.clang::SourceLocation", ptr %15, i32 0, i32 0
  store i32 %8, ptr %33, align 4
  store ptr %0, ptr %16, align 8
  store ptr %1, ptr %17, align 8
  store ptr %2, ptr %18, align 8
  store ptr %5, ptr %19, align 8
  store ptr %7, ptr %20, align 8
  store ptr %9, ptr %21, align 8
  store i8 %10, ptr %22, align 1
  %34 = load ptr, ptr %16, align 8
  %35 = load ptr, ptr %17, align 8
  %36 = load ptr, ptr %18, align 8
  call void @llvm.memcpy.p0.p0.i64(ptr align 4 %23, ptr align 4 %12, i64 4, i1 false)
  %37 = load ptr, ptr %19, align 8
  call void @llvm.memcpy.p0.p0.i64(ptr align 8 %24, ptr align 8 %14, i64 8, i1 false)
  %38 = load ptr, ptr %20, align 8
  %39 = getelementptr inbounds nuw %"class.clang::SourceLocation", ptr %23, i32 0, i32 0
  %40 = load i32, ptr %39, align 4
  %41 = getelementptr inbounds nuw %"class.clang::QualType", ptr %24, i32 0, i32 0
  %42 = getelementptr inbounds nuw %"class.llvm::PointerIntPair", ptr %41, i32 0, i32 0
  %43 = getelementptr inbounds nuw %"struct.llvm::detail::PunnedPointer", ptr %42, i32 0, i32 0
  %44 = load i64, ptr %43, align 8
  call void @_ZN5clang12FunctionDeclC2ENS_4Decl4KindERNS_10ASTContextEPNS_11DeclContextENS_14SourceLocationERKNS_19DeclarationNameInfoENS_8QualTypeEPNS_14TypeSourceInfoENS_12StorageClassEbbNS_17ConstexprSpecKindEPNS_4ExprE(ptr noundef nonnull align 8 dereferenceable(168) %34, i32 noundef 36, ptr noundef nonnull align 8 dereferenceable(23096) %35, ptr noundef %36, i32 %40, ptr noundef nonnull align 8 dereferenceable(24) %37, i64 %44, ptr noundef %38, i32 noundef 0, i1 noundef zeroext false, i1 noundef zeroext false, i32 noundef 0, ptr noundef null)
  store ptr getelementptr inbounds inrange(-16, 104) ({ [15 x ptr] }, ptr @_ZTVN5clang21CXXDeductionGuideDeclE, i32 0, i32 0, i32 2), ptr %34, align 8
  %45 = getelementptr inbounds nuw %"class.clang::CXXDeductionGuideDecl", ptr %34, i32 0, i32 1
  %46 = load ptr, ptr %21, align 8
  store ptr %46, ptr %45, align 8
  %47 = getelementptr inbounds nuw %"class.clang::CXXDeductionGuideDecl", ptr %34, i32 0, i32 2
  call void @llvm.memcpy.p0.p0.i64(ptr align 8 %47, ptr align 8 %13, i64 8, i1 false)
  %48 = call noundef zeroext i1 @_ZNK5clang14SourceLocation7isValidEv(ptr noundef nonnull align 4 dereferenceable(4) %15)
  br i1 %48, label %49, label %52

49:                                               ; preds = %11
  call void @llvm.memcpy.p0.p0.i64(ptr align 4 %25, ptr align 4 %15, i64 4, i1 false)
  %50 = getelementptr inbounds nuw %"class.clang::SourceLocation", ptr %25, i32 0, i32 0
  %51 = load i32, ptr %50, align 4
  call void @_ZN5clang12FunctionDecl11setRangeEndENS_14SourceLocationE(ptr noundef nonnull align 8 dereferenceable(168) %34, i32 %51)
  br label %52

52:                                               ; preds = %49, %11
  %53 = load i8, ptr %22, align 1
  call void @_ZN5clang21CXXDeductionGuideDecl25setDeductionCandidateKindENS_18DeductionCandidateE(ptr noundef nonnull align 8 dereferenceable(184) %34, i8 noundef zeroext %53)
  ret void
}

; Function Attrs: mustprogress nounwind uwtable
define dso_local noundef ptr @_ZN5clang21CXXDeductionGuideDecl6CreateERNS_10ASTContextEPNS_11DeclContextENS_14SourceLocationENS_17ExplicitSpecifierERKNS_19DeclarationNameInfoENS_8QualTypeEPNS_14TypeSourceInfoES5_PNS_18CXXConstructorDeclENS_18DeductionCandidateE(ptr noundef nonnull align 8 dereferenceable(23096) %0, ptr noundef %1, i32 %2, i64 %3, ptr noundef nonnull align 8 dereferenceable(24) %4, i64 %5, ptr noundef %6, i32 %7, ptr noundef %8, i8 noundef zeroext %9) #0 align 2 {
  %11 = alloca %"class.clang::SourceLocation", align 4
  %12 = alloca %"class.clang::ExplicitSpecifier", align 8
  %13 = alloca %"class.clang::QualType", align 8
  %14 = alloca %"class.clang::SourceLocation", align 4
  %15 = alloca ptr, align 8
  %16 = alloca ptr, align 8
  %17 = alloca ptr, align 8
  %18 = alloca ptr, align 8
  %19 = alloca ptr, align 8
  %20 = alloca i8, align 1
  %21 = alloca %"class.clang::SourceLocation", align 4
  %22 = alloca %"class.clang::ExplicitSpecifier", align 8
  %23 = alloca %"class.clang::QualType", align 8
  %24 = alloca %"class.clang::SourceLocation", align 4
  %25 = getelementptr inbounds nuw %"class.clang::SourceLocation", ptr %11, i32 0, i32 0
  store i32 %2, ptr %25, align 4
  %26 = getelementptr inbounds nuw %"class.clang::ExplicitSpecifier", ptr %12, i32 0, i32 0
  %27 = getelementptr inbounds nuw %"class.llvm::PointerIntPair.460", ptr %26, i32 0, i32 0
  %28 = getelementptr inbounds nuw %"struct.llvm::detail::PunnedPointer.461", ptr %27, i32 0, i32 0
  store i64 %3, ptr %28, align 8
  %29 = getelementptr inbounds nuw %"class.clang::QualType", ptr %13, i32 0, i32 0
  %30 = getelementptr inbounds nuw %"class.llvm::PointerIntPair", ptr %29, i32 0, i32 0
  %31 = getelementptr inbounds nuw %"struct.llvm::detail::PunnedPointer", ptr %30, i32 0, i32 0
  store i64 %5, ptr %31, align 8
  %32 = getelementptr inbounds nuw %"class.clang::SourceLocation", ptr %14, i32 0, i32 0
  store i32 %7, ptr %32, align 4
  store ptr %0, ptr %15, align 8
  store ptr %1, ptr %16, align 8
  store ptr %4, ptr %17, align 8
  store ptr %6, ptr %18, align 8
  store ptr %8, ptr %19, align 8
  store i8 %9, ptr %20, align 1
  %33 = load ptr, ptr %15, align 8
  %34 = load ptr, ptr %16, align 8
  %35 = call noundef ptr @_ZN5clang4DeclnwEmRKNS_10ASTContextEPNS_11DeclContextEm(i64 noundef 184, ptr noundef nonnull align 8 dereferenceable(23096) %33, ptr noundef %34, i64 noundef 0)
  %36 = load ptr, ptr %15, align 8
  %37 = load ptr, ptr %16, align 8
  call void @llvm.memcpy.p0.p0.i64(ptr align 4 %21, ptr align 4 %11, i64 4, i1 false)
  call void @llvm.memcpy.p0.p0.i64(ptr align 8 %22, ptr align 8 %12, i64 8, i1 false)
  %38 = load ptr, ptr %17, align 8
  call void @llvm.memcpy.p0.p0.i64(ptr align 8 %23, ptr align 8 %13, i64 8, i1 false)
  %39 = load ptr, ptr %18, align 8
  call void @llvm.memcpy.p0.p0.i64(ptr align 4 %24, ptr align 4 %14, i64 4, i1 false)
  %40 = load ptr, ptr %19, align 8
  %41 = load i8, ptr %20, align 1
  %42 = getelementptr inbounds nuw %"class.clang::SourceLocation", ptr %21, i32 0, i32 0
  %43 = load i32, ptr %42, align 4
  %44 = getelementptr inbounds nuw %"class.clang::ExplicitSpecifier", ptr %22, i32 0, i32 0
  %45 = getelementptr inbounds nuw %"class.llvm::PointerIntPair.460", ptr %44, i32 0, i32 0
  %46 = getelementptr inbounds nuw %"struct.llvm::detail::PunnedPointer.461", ptr %45, i32 0, i32 0
  %47 = load i64, ptr %46, align 8
  %48 = getelementptr inbounds nuw %"class.clang::QualType", ptr %23, i32 0, i32 0
  %49 = getelementptr inbounds nuw %"class.llvm::PointerIntPair", ptr %48, i32 0, i32 0
  %50 = getelementptr inbounds nuw %"struct.llvm::detail::PunnedPointer", ptr %49, i32 0, i32 0
  %51 = load i64, ptr %50, align 8
  %52 = getelementptr inbounds nuw %"class.clang::SourceLocation", ptr %24, i32 0, i32 0
  %53 = load i32, ptr %52, align 4
  call void @_ZN5clang21CXXDeductionGuideDeclC2ERNS_10ASTContextEPNS_11DeclContextENS_14SourceLocationENS_17ExplicitSpecifierERKNS_19DeclarationNameInfoENS_8QualTypeEPNS_14TypeSourceInfoES5_PNS_18CXXConstructorDeclENS_18DeductionCandidateE(ptr noundef nonnull align 8 dereferenceable(184) %35, ptr noundef nonnull align 8 dereferenceable(23096) %36, ptr noundef %37, i32 %43, i64 %47, ptr noundef nonnull align 8 dereferenceable(24) %38, i64 %51, ptr noundef %39, i32 %53, ptr noundef %40, i8 noundef zeroext %41)
  ret ptr %35
}