; Function Attrs: mustprogress nounwind uwtable
define dso_local noundef ptr @_ZN5clang21CXXDeductionGuideDecl6CreateERNS_10ASTContextEPNS_11DeclContextENS_14SourceLocationENS_17ExplicitSpecifierERKNS_19DeclarationNameInfoENS_8QualTypeEPNS_14TypeSourceInfoES5_PNS_18CXXConstructorDeclENS_18DeductionCandidateE(ptr noundef nonnull align 8 dereferenceable(23096) %0, ptr noundef %1, i32 %2, i64 %3, ptr noundef nonnull align 8 dereferenceable(24) %4, i64 %5, ptr noundef %6, i32 %7, ptr noundef %8, i8 noundef zeroext %9) local_unnamed_addr #1 align 2 {
  %11 = tail call noundef ptr @_ZN5clang4DeclnwEmRKNS_10ASTContextEPNS_11DeclContextEm(i64 noundef 184, ptr noundef nonnull align 8 dereferenceable(23096) %0, ptr noundef %1, i64 noundef 0) #25
  tail call void @_ZN5clang12FunctionDeclC2ENS_4Decl4KindERNS_10ASTContextEPNS_11DeclContextENS_14SourceLocationERKNS_19DeclarationNameInfoENS_8QualTypeEPNS_14TypeSourceInfoENS_12StorageClassEbbNS_17ConstexprSpecKindEPNS_4ExprE(ptr noundef nonnull align 8 dereferenceable(184) %11, i32 noundef 36, ptr noundef nonnull align 8 dereferenceable(23096) %0, ptr noundef %1, i32 %2, ptr noundef nonnull align 8 dereferenceable(24) %4, i64 %5, ptr noundef %6, i32 noundef 0, i1 noundef zeroext false, i1 noundef zeroext false, i32 noundef 0, ptr noundef null) #25
  store ptr getelementptr inbounds nuw inrange(-16, 104) (i8, ptr @_ZTVN5clang21CXXDeductionGuideDeclE, i64 16), ptr %11, align 8
  %12 = getelementptr inbounds nuw i8, ptr %11, i64 168
  store ptr %8, ptr %12, align 8
  %13 = getelementptr inbounds nuw i8, ptr %11, i64 176
  store i64 %3, ptr %13, align 8
  %.not.i = icmp eq i32 %7, 0
  br i1 %.not.i, label %_ZN5clang21CXXDeductionGuideDeclC2ERNS_10ASTContextEPNS_11DeclContextENS_14SourceLocationENS_17ExplicitSpecifierERKNS_19DeclarationNameInfoENS_8QualTypeEPNS_14TypeSourceInfoES5_PNS_18CXXConstructorDeclENS_18DeductionCandidateE.exit, label %14

14:                                               ; preds = %10
  %15 = getelementptr inbounds nuw i8, ptr %11, i64 140
  store i32 %7, ptr %15, align 4
  br label %_ZN5clang21CXXDeductionGuideDeclC2ERNS_10ASTContextEPNS_11DeclContextENS_14SourceLocationENS_17ExplicitSpecifierERKNS_19DeclarationNameInfoENS_8QualTypeEPNS_14TypeSourceInfoES5_PNS_18CXXConstructorDeclENS_18DeductionCandidateE.exit

_ZN5clang21CXXDeductionGuideDeclC2ERNS_10ASTContextEPNS_11DeclContextENS_14SourceLocationENS_17ExplicitSpecifierERKNS_19DeclarationNameInfoENS_8QualTypeEPNS_14TypeSourceInfoES5_PNS_18CXXConstructorDeclENS_18DeductionCandidateE.exit: ; preds = %10, %14
  %16 = getelementptr inbounds nuw i8, ptr %11, i64 82
  %17 = load i32, ptr %16, align 2
  %18 = and i8 %9, 3
  %19 = zext nneg i8 %18 to i32
  %20 = shl nuw nsw i32 %19, 23
  %21 = and i32 %17, -25165825
  %22 = or disjoint i32 %21, %20
  store i32 %22, ptr %16, align 2
  ret ptr %11
}